; Function Attrs: uwtable
define noundef i32 @_ZTv0_n176_N13colvarbias_ti16clear_state_dataEv(ptr nocapture noundef %0) unnamed_addr #6 align 2 {
  %2 = load ptr, ptr %0, align 8
  %3 = getelementptr inbounds i8, ptr %2, i64 -176
  %4 = load i64, ptr %3, align 8
  %5 = getelementptr inbounds i8, ptr %0, i64 %4
  %6 = getelementptr inbounds i8, ptr %5, i64 32
  %7 = load ptr, ptr %6, align 8
  %.not.i = icmp eq ptr %7, null
  br i1 %.not.i, label %12, label %8

8:                                                ; preds = %1
  %9 = load ptr, ptr %7, align 8
  %10 = getelementptr inbounds i8, ptr %9, i64 56
  %11 = load ptr, ptr %10, align 8
  tail call void %11(ptr noundef nonnull align 8 dereferenceable(720) %7) #23
  store ptr null, ptr %6, align 8
  br label %12

12:                                               ; preds = %8, %1
  %13 = getelementptr inbounds i8, ptr %5, i64 40
  %14 = load ptr, ptr %13, align 8
  %.not2.i = icmp eq ptr %14, null
  br i1 %.not2.i, label %_ZN13colvarbias_ti16clear_state_dataEv.exit, label %15

15:                                               ; preds = %12
  %16 = load ptr, ptr %14, align 8
  %17 = getelementptr inbounds i8, ptr %16, i64 56
  %18 = load ptr, ptr %17, align 8
  tail call void %18(ptr noundef nonnull align 8 dereferenceable(698) %14) #23
  store ptr null, ptr %13, align 8
  br label %_ZN13colvarbias_ti16clear_state_dataEv.exit

_ZN13colvarbias_ti16clear_state_dataEv.exit:      ; preds = %12, %15
  ret i32 0
}